target datalayout = "e-m:e-p270:32:32-p271:32:32-p272:64:64-i64:64-i128:128-f80:128-n8:16:32:64-S128"
target triple = "x86_64-pc-linux-gnu"

%struct.Lexer = type { ptr, ptr, ptr, ptr, i32, i32, ptr, ptr, ptr, %struct.TokenData, %union.SourceSpan, i32, i32 }
%struct.TokenData = type { ptr, i64, %union.anon.86 }
%union.anon.86 = type { %struct.anon.89 }
%struct.anon.89 = type { %struct.Int128_, i8 }
%struct.Int128_ = type { i64, i64 }
%union.SourceSpan = type { i64 }
%struct.anon.0 = type { i16, i8, i8, i32 }
%struct.anon.87 = type { ptr, i64 }

@.str.65 = private unnamed_addr constant [36 x i8] c"FATAL ERROR %s -> in %s @ in %s:%d \00", align 1
@.str.66 = private unnamed_addr constant [22 x i8] c"Should be unreachable\00", align 1
@.str.93 = private unnamed_addr constant [54 x i8] c"The hex string seems to be missing a terminating '%c'\00", align 1
@.str.94 = private unnamed_addr constant [77 x i8] c"'%c' isn't a valid hexadecimal digit, all digits should be a-z, A-Z and 0-9.\00", align 1
@.str.95 = private unnamed_addr constant [77 x i8] c"This isn't a valid hexadecimal digit, all digits should be a-z, A-Z and 0-9.\00", align 1
@.str.96 = private unnamed_addr constant [78 x i8] c"The hexadecimal string is not an even length, did you miss a digit somewhere?\00", align 1
@__func__.char_is_whitespace = private unnamed_addr constant [19 x i8] c"char_is_whitespace\00", align 1
@.str.97 = private unnamed_addr constant [113 x i8] c"generated/home/dtcxzyw/WorkSpace/Projects/compilers/llvm-opt-benchmark/bench/c3c/c3c/src/compiler/../utils/lib.h\00", align 1

; Function Attrs: nounwind uwtable
define internal i32 @check_row(i64 noundef %0, i32 noundef %1) #0 {
  %3 = alloca i64, align 8
  %4 = alloca i32, align 4
  store i64 %0, ptr %3, align 8
  store i32 %1, ptr %4, align 4
  %5 = load i64, ptr %3, align 8
  %6 = icmp sgt i64 %5, 255
  br i1 %6, label %7, label %8

7:                                                ; preds = %2
  br label %11

8:                                                ; preds = %2
  %9 = load i64, ptr %3, align 8
  %10 = trunc i64 %9 to i32
  br label %11

11:                                               ; preds = %8, %7
  %12 = phi i32 [ 0, %7 ], [ %10, %8 ]
  ret i32 %12
}

; Function Attrs: nounwind uwtable
define internal zeroext i16 @check_col(i64 noundef %0, i32 noundef %1) #0 {
  %3 = alloca i16, align 2
  %4 = alloca i64, align 8
  %5 = alloca i32, align 4
  store i64 %0, ptr %4, align 8
  store i32 %1, ptr %5, align 4
  %6 = load i64, ptr %4, align 8
  %7 = icmp sgt i64 %6, 255
  br i1 %7, label %8, label %9

8:                                                ; preds = %2
  store i16 0, ptr %3, align 2
  br label %12

9:                                                ; preds = %2
  %10 = load i64, ptr %4, align 8
  %11 = trunc i64 %10 to i16
  store i16 %11, ptr %3, align 2
  br label %12

12:                                               ; preds = %9, %8
  %13 = load i16, ptr %3, align 2
  ret i16 %13
}

; Function Attrs: nounwind uwtable
define internal void @set_generic_token(ptr noundef %0, i32 noundef %1) #0 {
  %3 = alloca ptr, align 8
  %4 = alloca i32, align 4
  %5 = alloca i32, align 4
  %6 = alloca i32, align 4
  %7 = alloca i32, align 4
  store ptr %0, ptr %3, align 8
  store i32 %1, ptr %4, align 4
  %8 = load i32, ptr %4, align 4
  %9 = load ptr, ptr %3, align 8
  %10 = getelementptr inbounds %struct.Lexer, ptr %9, i32 0, i32 11
  store i32 %8, ptr %10, align 8
  %11 = load ptr, ptr %3, align 8
  %12 = getelementptr inbounds %struct.Lexer, ptr %11, i32 0, i32 3
  %13 = load ptr, ptr %12, align 8
  %14 = load ptr, ptr %3, align 8
  %15 = getelementptr inbounds %struct.Lexer, ptr %14, i32 0, i32 2
  %16 = load ptr, ptr %15, align 8
  %17 = ptrtoint ptr %13 to i64
  %18 = ptrtoint ptr %16 to i64
  %19 = sub i64 %17, %18
  %20 = load ptr, ptr %3, align 8
  %21 = getelementptr inbounds %struct.Lexer, ptr %20, i32 0, i32 9
  %22 = getelementptr inbounds %struct.TokenData, ptr %21, i32 0, i32 1
  store i64 %19, ptr %22, align 8
  %23 = load ptr, ptr %3, align 8
  %24 = getelementptr inbounds %struct.Lexer, ptr %23, i32 0, i32 2
  %25 = load ptr, ptr %24, align 8
  %26 = load ptr, ptr %3, align 8
  %27 = getelementptr inbounds %struct.Lexer, ptr %26, i32 0, i32 9
  %28 = getelementptr inbounds %struct.TokenData, ptr %27, i32 0, i32 0
  store ptr %25, ptr %28, align 8
  %29 = load ptr, ptr %3, align 8
  %30 = getelementptr inbounds %struct.Lexer, ptr %29, i32 0, i32 5
  %31 = load i32, ptr %30, align 4
  store i32 %31, ptr %5, align 4
  %32 = load i32, ptr %5, align 4
  %33 = load ptr, ptr %3, align 8
  %34 = getelementptr inbounds %struct.Lexer, ptr %33, i32 0, i32 4
  %35 = load i32, ptr %34, align 8
  %36 = icmp eq i32 %32, %35
  br i1 %36, label %37, label %62

37:                                               ; preds = %2
  %38 = load ptr, ptr %3, align 8
  %39 = getelementptr inbounds %struct.Lexer, ptr %38, i32 0, i32 2
  %40 = load ptr, ptr %39, align 8
  %41 = load ptr, ptr %3, align 8
  %42 = getelementptr inbounds %struct.Lexer, ptr %41, i32 0, i32 6
  %43 = load ptr, ptr %42, align 8
  %44 = ptrtoint ptr %40 to i64
  %45 = ptrtoint ptr %43 to i64
  %46 = sub i64 %44, %45
  %47 = add nsw i64 %46, 1
  %48 = load i32, ptr %5, align 4
  %49 = call zeroext i16 @check_col(i64 noundef %47, i32 noundef %48)
  %50 = zext i16 %49 to i32
  store i32 %50, ptr %6, align 4
  %51 = load ptr, ptr %3, align 8
  %52 = getelementptr inbounds %struct.Lexer, ptr %51, i32 0, i32 3
  %53 = load ptr, ptr %52, align 8
  %54 = load ptr, ptr %3, align 8
  %55 = getelementptr inbounds %struct.Lexer, ptr %54, i32 0, i32 2
  %56 = load ptr, ptr %55, align 8
  %57 = ptrtoint ptr %53 to i64
  %58 = ptrtoint ptr %56 to i64
  %59 = sub i64 %57, %58
  %60 = load i32, ptr %5, align 4
  %61 = call i32 @check_row(i64 noundef %59, i32 noundef %60)
  store i32 %61, ptr %7, align 4
  br label %76

62:                                               ; preds = %2
  %63 = load ptr, ptr %3, align 8
  %64 = getelementptr inbounds %struct.Lexer, ptr %63, i32 0, i32 2
  %65 = load ptr, ptr %64, align 8
  %66 = load ptr, ptr %3, align 8
  %67 = getelementptr inbounds %struct.Lexer, ptr %66, i32 0, i32 7
  %68 = load ptr, ptr %67, align 8
  %69 = ptrtoint ptr %65 to i64
  %70 = ptrtoint ptr %68 to i64
  %71 = sub i64 %69, %70
  %72 = add nsw i64 %71, 1
  %73 = load i32, ptr %5, align 4
  %74 = call zeroext i16 @check_col(i64 noundef %72, i32 noundef %73)
  %75 = zext i16 %74 to i32
  store i32 %75, ptr %6, align 4
  store i32 1, ptr %7, align 4
  br label %76

76:                                               ; preds = %62, %37
  %77 = load i32, ptr %7, align 4
  %78 = trunc i32 %77 to i8
  %79 = load ptr, ptr %3, align 8
  %80 = getelementptr inbounds %struct.Lexer, ptr %79, i32 0, i32 10
  %81 = getelementptr inbounds %struct.anon.0, ptr %80, i32 0, i32 1
  store i8 %78, ptr %81, align 2
  %82 = load i32, ptr %6, align 4
  %83 = trunc i32 %82 to i8
  %84 = load ptr, ptr %3, align 8
  %85 = getelementptr inbounds %struct.Lexer, ptr %84, i32 0, i32 10
  %86 = getelementptr inbounds %struct.anon.0, ptr %85, i32 0, i32 2
  store i8 %83, ptr %86, align 1
  %87 = load i32, ptr %5, align 4
  %88 = load ptr, ptr %3, align 8
  %89 = getelementptr inbounds %struct.Lexer, ptr %88, i32 0, i32 10
  %90 = getelementptr inbounds %struct.anon.0, ptr %89, i32 0, i32 3
  store i32 %87, ptr %90, align 4
  ret void
}

; Function Attrs: nounwind uwtable
define internal zeroext i1 @return_token(ptr noundef %0, i32 noundef %1, ptr noundef %2) #0 {
  %4 = alloca ptr, align 8
  %5 = alloca i32, align 4
  %6 = alloca ptr, align 8
  store ptr %0, ptr %4, align 8
  store i32 %1, ptr %5, align 4
  store ptr %2, ptr %6, align 8
  %7 = load ptr, ptr %4, align 8
  %8 = load i32, ptr %5, align 4
  call void @set_generic_token(ptr noundef %7, i32 noundef %8)
  %9 = load ptr, ptr %6, align 8
  %10 = load ptr, ptr %4, align 8
  %11 = getelementptr inbounds %struct.Lexer, ptr %10, i32 0, i32 9
  %12 = getelementptr inbounds %struct.TokenData, ptr %11, i32 0, i32 2
  %13 = getelementptr inbounds %struct.anon.87, ptr %12, i32 0, i32 0
  store ptr %9, ptr %13, align 8
  ret i1 true
}

; Function Attrs: nounwind uwtable
define internal zeroext i1 @char_is_whitespace(i8 noundef signext %0) #0 {
  %2 = alloca i1, align 1
  %3 = alloca i8, align 1
  store i8 %0, ptr %3, align 1
  %4 = load i8, ptr %3, align 1
  %5 = sext i8 %4 to i32
  switch i32 %5, label %10 [
    i32 32, label %6
    i32 9, label %6
    i32 10, label %6
    i32 13, label %7
  ]

6:                                                ; preds = %1, %1, %1
  store i1 true, ptr %2, align 1
  br label %11

7:                                                ; preds = %1
  br label %8

8:                                                ; preds = %7
  call void (ptr, ...) @error_exit(ptr noundef @.str.65, ptr noundef @.str.66, ptr noundef @__func__.char_is_whitespace, ptr noundef @.str.97, i32 noundef 581) #6
  unreachable

9:                                                ; No predecessors!
  br label %10

10:                                               ; preds = %9, %1
  store i1 false, ptr %2, align 1
  br label %11

11:                                               ; preds = %10, %6
  %12 = load i1, ptr %2, align 1
  ret i1 %12
}

; Function Attrs: nounwind uwtable
define internal zeroext i1 @char_is_hex(i8 noundef signext %0) #0 {
  %2 = alloca i8, align 1
  store i8 %0, ptr %2, align 1
  %3 = load i8, ptr %2, align 1
  %4 = zext i8 %3 to i64
  %5 = getelementptr inbounds [256 x i8], ptr @hex_conv, i64 0, i64 %4
  %6 = load i8, ptr %5, align 1
  %7 = sext i8 %6 to i32
  %8 = icmp ne i32 %7, 0
  ret i1 %8
}

; Function Attrs: nounwind uwtable
define internal zeroext i1 @scan_hex_array(ptr noundef %0) #0 {
  %2 = alloca ptr, align 8
  %3 = alloca ptr, align 8
  %4 = alloca ptr, align 8
  %5 = alloca ptr, align 8
  %6 = alloca i1, align 1
  %7 = alloca ptr, align 8
  %8 = alloca i8, align 1
  %9 = alloca i8, align 1
  %10 = alloca i64, align 8
  store ptr %0, ptr %7, align 8
  %11 = load ptr, ptr %7, align 8
  %12 = getelementptr inbounds %struct.Lexer, ptr %11, i32 0, i32 3
  %13 = load ptr, ptr %12, align 8
  %14 = load i8, ptr %13, align 1
  store i8 %14, ptr %8, align 1
  %15 = load ptr, ptr %7, align 8
  store ptr %15, ptr %2, align 8
  %16 = load ptr, ptr %2, align 8
  %17 = getelementptr inbounds %struct.Lexer, ptr %16, i32 0, i32 3
  %18 = load ptr, ptr %17, align 8
  %19 = load i8, ptr %18, align 1
  %20 = sext i8 %19 to i32
  %21 = icmp eq i32 %20, 10
  br i1 %21, label %22, label %33

22:                                               ; preds = %1
  %23 = load ptr, ptr %2, align 8
  %24 = getelementptr inbounds %struct.Lexer, ptr %23, i32 0, i32 3
  %25 = load ptr, ptr %24, align 8
  %26 = getelementptr inbounds i8, ptr %25, i64 1
  %27 = load ptr, ptr %2, align 8
  %28 = getelementptr inbounds %struct.Lexer, ptr %27, i32 0, i32 6
  store ptr %26, ptr %28, align 8
  %29 = load ptr, ptr %2, align 8
  %30 = getelementptr inbounds %struct.Lexer, ptr %29, i32 0, i32 4
  %31 = load i32, ptr %30, align 8
  %32 = add i32 %31, 1
  store i32 %32, ptr %30, align 8
  br label %33

33:                                               ; preds = %22, %1
  %34 = load ptr, ptr %2, align 8
  %35 = getelementptr inbounds %struct.Lexer, ptr %34, i32 0, i32 3
  %36 = load ptr, ptr %35, align 8
  %37 = getelementptr inbounds i8, ptr %36, i32 1
  store ptr %37, ptr %35, align 8
  store i64 0, ptr %10, align 8
  br label %38

38:                                               ; preds = %109, %80, %33
  %39 = load ptr, ptr %7, align 8
  %40 = getelementptr inbounds %struct.Lexer, ptr %39, i32 0, i32 3
  %41 = load ptr, ptr %40, align 8
  %42 = load i8, ptr %41, align 1
  store i8 %42, ptr %9, align 1
  %43 = load i8, ptr %9, align 1
  %44 = sext i8 %43 to i32
  %45 = icmp eq i32 %44, 0
  br i1 %45, label %46, label %51

46:                                               ; preds = %38
  %47 = load ptr, ptr %7, align 8
  %48 = load i8, ptr %8, align 1
  %49 = sext i8 %48 to i32
  %50 = call zeroext i1 (ptr, ptr, ...) @add_error_token_at_current(ptr noundef %47, ptr noundef @.str.93, i32 noundef %49)
  store i1 %50, ptr %6, align 1
  br label %184

51:                                               ; preds = %38
  %52 = load i8, ptr %9, align 1
  %53 = sext i8 %52 to i32
  %54 = load i8, ptr %8, align 1
  %55 = sext i8 %54 to i32
  %56 = icmp eq i32 %53, %55
  br i1 %56, label %57, label %58

57:                                               ; preds = %51
  br label %130

58:                                               ; preds = %51
  %59 = load i8, ptr %9, align 1
  %60 = call zeroext i1 @char_is_hex(i8 noundef signext %59)
  br i1 %60, label %61, label %87

61:                                               ; preds = %58
  %62 = load ptr, ptr %7, align 8
  store ptr %62, ptr %3, align 8
  %63 = load ptr, ptr %3, align 8
  %64 = getelementptr inbounds %struct.Lexer, ptr %63, i32 0, i32 3
  %65 = load ptr, ptr %64, align 8
  %66 = load i8, ptr %65, align 1
  %67 = sext i8 %66 to i32
  %68 = icmp eq i32 %67, 10
  br i1 %68, label %69, label %80

69:                                               ; preds = %61
  %70 = load ptr, ptr %3, align 8
  %71 = getelementptr inbounds %struct.Lexer, ptr %70, i32 0, i32 3
  %72 = load ptr, ptr %71, align 8
  %73 = getelementptr inbounds i8, ptr %72, i64 1
  %74 = load ptr, ptr %3, align 8
  %75 = getelementptr inbounds %struct.Lexer, ptr %74, i32 0, i32 6
  store ptr %73, ptr %75, align 8
  %76 = load ptr, ptr %3, align 8
  %77 = getelementptr inbounds %struct.Lexer, ptr %76, i32 0, i32 4
  %78 = load i32, ptr %77, align 8
  %79 = add i32 %78, 1
  store i32 %79, ptr %77, align 8
  br label %80

80:                                               ; preds = %69, %61
  %81 = load ptr, ptr %3, align 8
  %82 = getelementptr inbounds %struct.Lexer, ptr %81, i32 0, i32 3
  %83 = load ptr, ptr %82, align 8
  %84 = getelementptr inbounds i8, ptr %83, i32 1
  store ptr %84, ptr %82, align 8
  %85 = load i64, ptr %10, align 8
  %86 = add i64 %85, 1
  store i64 %86, ptr %10, align 8
  br label %38

87:                                               ; preds = %58
  %88 = load i8, ptr %9, align 1
  %89 = call zeroext i1 @char_is_whitespace(i8 noundef signext %88)
  br i1 %89, label %90, label %114

90:                                               ; preds = %87
  %91 = load ptr, ptr %7, align 8
  store ptr %91, ptr %4, align 8
  %92 = load ptr, ptr %4, align 8
  %93 = getelementptr inbounds %struct.Lexer, ptr %92, i32 0, i32 3
  %94 = load ptr, ptr %93, align 8
  %95 = load i8, ptr %94, align 1
  %96 = sext i8 %95 to i32
  %97 = icmp eq i32 %96, 10
  br i1 %97, label %98, label %109

98:                                               ; preds = %90
  %99 = load ptr, ptr %4, align 8
  %100 = getelementptr inbounds %struct.Lexer, ptr %99, i32 0, i32 3
  %101 = load ptr, ptr %100, align 8
  %102 = getelementptr inbounds i8, ptr %101, i64 1
  %103 = load ptr, ptr %4, align 8
  %104 = getelementptr inbounds %struct.Lexer, ptr %103, i32 0, i32 6
  store ptr %102, ptr %104, align 8
  %105 = load ptr, ptr %4, align 8
  %106 = getelementptr inbounds %struct.Lexer, ptr %105, i32 0, i32 4
  %107 = load i32, ptr %106, align 8
  %108 = add i32 %107, 1
  store i32 %108, ptr %106, align 8
  br label %109

109:                                              ; preds = %98, %90
  %110 = load ptr, ptr %4, align 8
  %111 = getelementptr inbounds %struct.Lexer, ptr %110, i32 0, i32 3
  %112 = load ptr, ptr %111, align 8
  %113 = getelementptr inbounds i8, ptr %112, i32 1
  store ptr %113, ptr %111, align 8
  br label %38

114:                                              ; preds = %87
  %115 = load i8, ptr %9, align 1
  %116 = sext i8 %115 to i32
  %117 = icmp sgt i32 %116, 32
  br i1 %117, label %118, label %127

118:                                              ; preds = %114
  %119 = load i8, ptr %9, align 1
  %120 = sext i8 %119 to i32
  %121 = icmp slt i32 %120, 127
  br i1 %121, label %122, label %127

122:                                              ; preds = %118
  %123 = load ptr, ptr %7, align 8
  %124 = load i8, ptr %9, align 1
  %125 = sext i8 %124 to i32
  %126 = call zeroext i1 (ptr, ptr, ...) @add_error_token_at_current(ptr noundef %123, ptr noundef @.str.94, i32 noundef %125)
  store i1 %126, ptr %6, align 1
  br label %184

127:                                              ; preds = %118, %114
  %128 = load ptr, ptr %7, align 8
  %129 = call zeroext i1 (ptr, ptr, ...) @add_error_token_at_current(ptr noundef %128, ptr noundef @.str.95)
  store i1 %129, ptr %6, align 1
  br label %184

130:                                              ; preds = %57
  %131 = load ptr, ptr %7, align 8
  store ptr %131, ptr %5, align 8
  %132 = load ptr, ptr %5, align 8
  %133 = getelementptr inbounds %struct.Lexer, ptr %132, i32 0, i32 3
  %134 = load ptr, ptr %133, align 8
  %135 = load i8, ptr %134, align 1
  %136 = sext i8 %135 to i32
  %137 = icmp eq i32 %136, 10
  br i1 %137, label %138, label %149

138:                                              ; preds = %130
  %139 = load ptr, ptr %5, align 8
  %140 = getelementptr inbounds %struct.Lexer, ptr %139, i32 0, i32 3
  %141 = load ptr, ptr %140, align 8
  %142 = getelementptr inbounds i8, ptr %141, i64 1
  %143 = load ptr, ptr %5, align 8
  %144 = getelementptr inbounds %struct.Lexer, ptr %143, i32 0, i32 6
  store ptr %142, ptr %144, align 8
  %145 = load ptr, ptr %5, align 8
  %146 = getelementptr inbounds %struct.Lexer, ptr %145, i32 0, i32 4
  %147 = load i32, ptr %146, align 8
  %148 = add i32 %147, 1
  store i32 %148, ptr %146, align 8
  br label %149

149:                                              ; preds = %138, %130
  %150 = load ptr, ptr %5, align 8
  %151 = getelementptr inbounds %struct.Lexer, ptr %150, i32 0, i32 3
  %152 = load ptr, ptr %151, align 8
  %153 = getelementptr inbounds i8, ptr %152, i32 1
  store ptr %153, ptr %151, align 8
  %154 = load i64, ptr %10, align 8
  %155 = urem i64 %154, 2
  %156 = icmp ne i64 %155, 0
  br i1 %156, label %157, label %160

157:                                              ; preds = %149
  %158 = load ptr, ptr %7, align 8
  %159 = call zeroext i1 (ptr, ptr, ...) @add_error_token(ptr noundef %158, ptr noundef @.str.96)
  store i1 %159, ptr %6, align 1
  br label %184

160:                                              ; preds = %149
  %161 = load ptr, ptr %7, align 8
  %162 = load ptr, ptr %7, align 8
  %163 = getelementptr inbounds %struct.Lexer, ptr %162, i32 0, i32 2
  %164 = load ptr, ptr %163, align 8
  %165 = call zeroext i1 @return_token(ptr noundef %161, i32 noundef 80, ptr noundef %164)
  br i1 %165, label %167, label %166

166:                                              ; preds = %160
  store i1 false, ptr %6, align 1
  br label %184

167:                                              ; preds = %160
  %168 = load ptr, ptr %7, align 8
  %169 = getelementptr inbounds %struct.Lexer, ptr %168, i32 0, i32 9
  %170 = getelementptr inbounds %struct.TokenData, ptr %169, i32 0, i32 2
  %171 = load i64, ptr %170, align 8
  %172 = and i64 %171, -2
  %173 = or i64 %172, 0
  store i64 %173, ptr %170, align 8
  %174 = load i64, ptr %10, align 8
  %175 = udiv i64 %174, 2
  %176 = load ptr, ptr %7, align 8
  %177 = getelementptr inbounds %struct.Lexer, ptr %176, i32 0, i32 9
  %178 = getelementptr inbounds %struct.TokenData, ptr %177, i32 0, i32 2
  %179 = load i64, ptr %178, align 8
  %180 = and i64 %175, 9223372036854775807
  %181 = shl i64 %180, 1
  %182 = and i64 %179, 1
  %183 = or i64 %182, %181
  store i64 %183, ptr %178, align 8
  store i1 true, ptr %6, align 1
  br label %184

184:                                              ; preds = %167, %166, %157, %127, %122, %46
  %185 = load i1, ptr %6, align 1
  ret i1 %185
}