; Function Attrs: nounwind uwtable
define internal fastcc noundef zeroext i1 @scan_hex_array(ptr nocapture noundef %0) unnamed_addr #0 {
  %2 = getelementptr inbounds i8, ptr %0, i64 24
  %3 = load ptr, ptr %2, align 8
  %4 = load i8, ptr %3, align 1
  %5 = sext i8 %4 to i32
  %6 = icmp eq i8 %4, 10
  br i1 %6, label %7, label %13

7:                                                ; preds = %1
  %8 = getelementptr inbounds i8, ptr %3, i64 1
  %9 = getelementptr inbounds i8, ptr %0, i64 40
  store ptr %8, ptr %9, align 8
  %10 = getelementptr inbounds i8, ptr %0, i64 32
  %11 = load i32, ptr %10, align 8
  %12 = add i32 %11, 1
  store i32 %12, ptr %10, align 8
  br label %13

13:                                               ; preds = %7, %1
  %14 = getelementptr inbounds i8, ptr %3, i64 1
  store ptr %14, ptr %2, align 8
  %15 = load i8, ptr %14, align 1
  %16 = icmp eq i8 %15, 0
  br i1 %16, label %.outer._crit_edge, label %.lr.ph.lr.ph

.lr.ph.lr.ph:                                     ; preds = %13
  %17 = getelementptr inbounds i8, ptr %0, i64 40
  %18 = getelementptr inbounds i8, ptr %0, i64 32
  br label %.lr.ph

.lr.ph:                                           ; preds = %.lr.ph.lr.ph, %.outer
  %19 = phi i8 [ %15, %.lr.ph.lr.ph ], [ %36, %.outer ]
  %.0.ph72 = phi i64 [ 0, %.lr.ph.lr.ph ], [ %35, %.outer ]
  %.promoted7071 = phi ptr [ %14, %.lr.ph.lr.ph ], [ %34, %.outer ]
  br label %20

.outer._crit_edge:                                ; preds = %.outer, %44, %13
  tail call void (ptr, ptr, ...) @add_error_token_at_current(ptr noundef nonnull %0, ptr noundef nonnull @.str.93, i32 noundef %5)
  br label %96

20:                                               ; preds = %.lr.ph, %44
  %21 = phi i8 [ %19, %.lr.ph ], [ %46, %44 ]
  %22 = phi ptr [ %.promoted7071, %.lr.ph ], [ %45, %44 ]
  %23 = icmp eq i8 %21, %4
  br i1 %23, label %52, label %24

24:                                               ; preds = %20
  %25 = zext i8 %21 to i64
  %26 = getelementptr inbounds [256 x i8], ptr @hex_conv, i64 0, i64 %25
  %27 = load i8, ptr %26, align 1
  %.not51 = icmp eq i8 %27, 0
  br i1 %.not51, label %38, label %28

28:                                               ; preds = %24
  %29 = icmp eq i8 %21, 10
  br i1 %29, label %30, label %.outer

30:                                               ; preds = %28
  %31 = getelementptr inbounds i8, ptr %22, i64 1
  store ptr %31, ptr %17, align 8
  %32 = load i32, ptr %18, align 8
  %33 = add i32 %32, 1
  store i32 %33, ptr %18, align 8
  br label %.outer

.outer:                                           ; preds = %30, %28
  %34 = getelementptr inbounds i8, ptr %22, i64 1
  store ptr %34, ptr %2, align 8
  %35 = add i64 %.0.ph72, 1
  %36 = load i8, ptr %34, align 1
  %37 = icmp eq i8 %36, 0
  br i1 %37, label %.outer._crit_edge, label %.lr.ph

38:                                               ; preds = %24
  switch i8 %21, label %char_is_whitespace.exit [
    i8 13, label %39
    i8 10, label %40
    i8 9, label %44
    i8 32, label %44
  ]

39:                                               ; preds = %38
  tail call void (ptr, ...) @error_exit(ptr noundef nonnull @.str.65, ptr noundef nonnull @.str.66, ptr noundef nonnull @__func__.char_is_whitespace, ptr noundef nonnull @.str.97, i32 noundef 581) #9
  unreachable

40:                                               ; preds = %38
  %41 = getelementptr inbounds i8, ptr %22, i64 1
  store ptr %41, ptr %17, align 8
  %42 = load i32, ptr %18, align 8
  %43 = add i32 %42, 1
  store i32 %43, ptr %18, align 8
  br label %44

44:                                               ; preds = %38, %38, %40
  %45 = getelementptr inbounds i8, ptr %22, i64 1
  store ptr %45, ptr %2, align 8
  %46 = load i8, ptr %45, align 1
  %47 = icmp eq i8 %46, 0
  br i1 %47, label %.outer._crit_edge, label %20

char_is_whitespace.exit:                          ; preds = %38
  %48 = add i8 %21, -33
  %or.cond = icmp ult i8 %48, 94
  br i1 %or.cond, label %49, label %51

49:                                               ; preds = %char_is_whitespace.exit
  %50 = zext nneg i8 %21 to i32
  tail call void (ptr, ptr, ...) @add_error_token_at_current(ptr noundef nonnull %0, ptr noundef nonnull @.str.94, i32 noundef %50)
  br label %96

51:                                               ; preds = %char_is_whitespace.exit
  tail call void (ptr, ptr, ...) @add_error_token_at_current(ptr noundef nonnull %0, ptr noundef nonnull @.str.95)
  br label %96

52:                                               ; preds = %20
  br i1 %6, label %53, label %57

53:                                               ; preds = %52
  %54 = getelementptr inbounds i8, ptr %22, i64 1
  store ptr %54, ptr %17, align 8
  %55 = load i32, ptr %18, align 8
  %56 = add i32 %55, 1
  store i32 %56, ptr %18, align 8
  br label %57

57:                                               ; preds = %53, %52
  %58 = getelementptr inbounds i8, ptr %22, i64 1
  store ptr %58, ptr %2, align 8
  %59 = and i64 %.0.ph72, 1
  %.not = icmp eq i64 %59, 0
  br i1 %.not, label %61, label %60

60:                                               ; preds = %57
  tail call void (ptr, ptr, ...) @add_error_token(ptr noundef nonnull %0, ptr noundef nonnull @.str.96)
  br label %96

61:                                               ; preds = %57
  %62 = getelementptr inbounds i8, ptr %0, i64 16
  %63 = load ptr, ptr %62, align 8
  %64 = getelementptr inbounds i8, ptr %0, i64 112
  store i32 80, ptr %64, align 8
  %65 = ptrtoint ptr %58 to i64
  %66 = ptrtoint ptr %63 to i64
  %67 = sub i64 %65, %66
  %68 = getelementptr inbounds i8, ptr %0, i64 64
  %69 = getelementptr inbounds i8, ptr %0, i64 72
  store i64 %67, ptr %69, align 8
  store ptr %63, ptr %68, align 8
  %70 = getelementptr inbounds i8, ptr %0, i64 36
  %71 = load i32, ptr %70, align 4
  %72 = load i32, ptr %18, align 8
  %73 = icmp eq i32 %71, %72
  br i1 %73, label %74, label %84

74:                                               ; preds = %61
  %75 = load ptr, ptr %17, align 8
  %76 = ptrtoint ptr %75 to i64
  %77 = sub i64 %66, %76
  %78 = icmp sgt i64 %77, 254
  %79 = trunc i64 %77 to i8
  %80 = add i8 %79, 1
  %.0.i.i.i = select i1 %78, i8 0, i8 %80
  %81 = icmp sgt i64 %67, 255
  %82 = trunc i64 %67 to i8
  %83 = select i1 %81, i8 0, i8 %82
  br label %return_token.exit

84:                                               ; preds = %61
  %85 = getelementptr inbounds i8, ptr %0, i64 48
  %86 = load ptr, ptr %85, align 8
  %87 = ptrtoint ptr %86 to i64
  %88 = sub i64 %66, %87
  %89 = icmp sgt i64 %88, 254
  %90 = trunc i64 %88 to i8
  %91 = add i8 %90, 1
  %.0.i26.i.i = select i1 %89, i8 0, i8 %91
  br label %return_token.exit

return_token.exit:                                ; preds = %74, %84
  %.024.in.i.i = phi i8 [ %.0.i.i.i, %74 ], [ %.0.i26.i.i, %84 ]
  %.0.i.i = phi i8 [ %83, %74 ], [ 1, %84 ]
  %92 = getelementptr inbounds i8, ptr %0, i64 106
  store i8 %.0.i.i, ptr %92, align 2
  %93 = getelementptr inbounds i8, ptr %0, i64 107
  store i8 %.024.in.i.i, ptr %93, align 1
  %94 = getelementptr inbounds i8, ptr %0, i64 108
  store i32 %71, ptr %94, align 4
  %95 = getelementptr inbounds i8, ptr %0, i64 80
  store i64 %.0.ph72, ptr %95, align 8
  br label %96

96:                                               ; preds = %return_token.exit, %60, %51, %49, %.outer._crit_edge
  %.048 = phi i1 [ false, %.outer._crit_edge ], [ false, %60 ], [ true, %return_token.exit ], [ false, %49 ], [ false, %51 ]
  ret i1 %.048
}